target datalayout = "e-m:e-p270:32:32-p271:32:32-p272:64:64-i64:64-i128:128-f80:128-n8:16:32:64-S128"
target triple = "x86_64-pc-linux-gnu"

%struct.code = type { i8, i8, i16 }
%struct.z_stream_s = type { ptr, i32, i64, ptr, i32, i64, ptr, ptr, ptr, ptr, ptr, i32, i64, i64 }
%struct.inflate_state = type { ptr, i32, i32, i32, i32, i32, i32, i64, i64, ptr, i32, i32, i32, i32, ptr, i64, i32, i32, i32, i32, ptr, ptr, i32, i32, i32, i32, i32, i32, ptr, [320 x i16], [288 x i16], [1444 x %struct.code], i32, i32, i32 }

; Function Attrs: nounwind uwtable
define internal i32 @inflateStateCheck(ptr noundef %0) #0 {
  %2 = alloca i32, align 4
  %3 = alloca ptr, align 8
  %4 = alloca ptr, align 8
  %5 = alloca i32, align 4
  store ptr %0, ptr %3, align 8, !tbaa !3
  call void @llvm.lifetime.start.p0(i64 8, ptr %4) #4
  %6 = load ptr, ptr %3, align 8, !tbaa !3
  %7 = icmp eq ptr %6, null
  br i1 %7, label %18, label %8

8:                                                ; preds = %1
  %9 = load ptr, ptr %3, align 8, !tbaa !3
  %10 = getelementptr inbounds nuw %struct.z_stream_s, ptr %9, i32 0, i32 8
  %11 = load ptr, ptr %10, align 8, !tbaa !37
  %12 = icmp eq ptr %11, null
  br i1 %12, label %18, label %13

13:                                               ; preds = %8
  %14 = load ptr, ptr %3, align 8, !tbaa !3
  %15 = getelementptr inbounds nuw %struct.z_stream_s, ptr %14, i32 0, i32 9
  %16 = load ptr, ptr %15, align 8, !tbaa !38
  %17 = icmp eq ptr %16, null
  br i1 %17, label %18, label %19

18:                                               ; preds = %13, %8, %1
  store i32 1, ptr %2, align 4
  store i32 1, ptr %5, align 4
  br label %43

19:                                               ; preds = %13
  %20 = load ptr, ptr %3, align 8, !tbaa !3
  %21 = getelementptr inbounds nuw %struct.z_stream_s, ptr %20, i32 0, i32 7
  %22 = load ptr, ptr %21, align 8, !tbaa !8
  store ptr %22, ptr %4, align 8, !tbaa !14
  %23 = load ptr, ptr %4, align 8, !tbaa !14
  %24 = icmp eq ptr %23, null
  br i1 %24, label %41, label %25

25:                                               ; preds = %19
  %26 = load ptr, ptr %4, align 8, !tbaa !14
  %27 = getelementptr inbounds nuw %struct.inflate_state, ptr %26, i32 0, i32 0
  %28 = load ptr, ptr %27, align 8, !tbaa !39
  %29 = load ptr, ptr %3, align 8, !tbaa !3
  %30 = icmp ne ptr %28, %29
  br i1 %30, label %41, label %31

31:                                               ; preds = %25
  %32 = load ptr, ptr %4, align 8, !tbaa !14
  %33 = getelementptr inbounds nuw %struct.inflate_state, ptr %32, i32 0, i32 1
  %34 = load i32, ptr %33, align 8, !tbaa !24
  %35 = icmp ult i32 %34, 16180
  br i1 %35, label %41, label %36

36:                                               ; preds = %31
  %37 = load ptr, ptr %4, align 8, !tbaa !14
  %38 = getelementptr inbounds nuw %struct.inflate_state, ptr %37, i32 0, i32 1
  %39 = load i32, ptr %38, align 8, !tbaa !24
  %40 = icmp ugt i32 %39, 16211
  br i1 %40, label %41, label %42

41:                                               ; preds = %36, %31, %25, %19
  store i32 1, ptr %2, align 4
  store i32 1, ptr %5, align 4
  br label %43

42:                                               ; preds = %36
  store i32 0, ptr %2, align 4
  store i32 1, ptr %5, align 4
  br label %43

43:                                               ; preds = %42, %41, %18
  call void @llvm.lifetime.end.p0(i64 8, ptr %4) #4
  %44 = load i32, ptr %2, align 4
  ret i32 %44
}

; Function Attrs: nounwind uwtable
define i32 @inflateGetDictionary(ptr noundef %0, ptr noundef %1, ptr noundef %2) #0 {
  %4 = alloca i32, align 4
  %5 = alloca ptr, align 8
  %6 = alloca ptr, align 8
  %7 = alloca ptr, align 8
  %8 = alloca ptr, align 8
  %9 = alloca i32, align 4
  store ptr %0, ptr %5, align 8, !tbaa !3
  store ptr %1, ptr %6, align 8, !tbaa !47
  store ptr %2, ptr %7, align 8, !tbaa !113
  call void @llvm.lifetime.start.p0(i64 8, ptr %8) #4
  %10 = load ptr, ptr %5, align 8, !tbaa !3
  %11 = call i32 @inflateStateCheck(ptr noundef %10)
  %12 = icmp ne i32 %11, 0
  br i1 %12, label %13, label %14

13:                                               ; preds = %3
  store i32 -2, ptr %4, align 4
  store i32 1, ptr %9, align 4
  br label %71

14:                                               ; preds = %3
  %15 = load ptr, ptr %5, align 8, !tbaa !3
  %16 = getelementptr inbounds nuw %struct.z_stream_s, ptr %15, i32 0, i32 7
  %17 = load ptr, ptr %16, align 8, !tbaa !8
  store ptr %17, ptr %8, align 8, !tbaa !14
  %18 = load ptr, ptr %8, align 8, !tbaa !14
  %19 = getelementptr inbounds nuw %struct.inflate_state, ptr %18, i32 0, i32 12
  %20 = load i32, ptr %19, align 8, !tbaa !41
  %21 = icmp ne i32 %20, 0
  br i1 %21, label %22, label %62

22:                                               ; preds = %14
  %23 = load ptr, ptr %6, align 8, !tbaa !47
  %24 = icmp ne ptr %23, null
  br i1 %24, label %25, label %62

25:                                               ; preds = %22
  %26 = load ptr, ptr %6, align 8, !tbaa !47
  %27 = load ptr, ptr %8, align 8, !tbaa !14
  %28 = getelementptr inbounds nuw %struct.inflate_state, ptr %27, i32 0, i32 14
  %29 = load ptr, ptr %28, align 8, !tbaa !44
  %30 = load ptr, ptr %8, align 8, !tbaa !14
  %31 = getelementptr inbounds nuw %struct.inflate_state, ptr %30, i32 0, i32 13
  %32 = load i32, ptr %31, align 4, !tbaa !42
  %33 = zext i32 %32 to i64
  %34 = getelementptr inbounds nuw i8, ptr %29, i64 %33
  %35 = load ptr, ptr %8, align 8, !tbaa !14
  %36 = getelementptr inbounds nuw %struct.inflate_state, ptr %35, i32 0, i32 12
  %37 = load i32, ptr %36, align 8, !tbaa !41
  %38 = load ptr, ptr %8, align 8, !tbaa !14
  %39 = getelementptr inbounds nuw %struct.inflate_state, ptr %38, i32 0, i32 13
  %40 = load i32, ptr %39, align 4, !tbaa !42
  %41 = sub i32 %37, %40
  %42 = zext i32 %41 to i64
  call void @llvm.memcpy.p0.p0.i64(ptr align 1 %26, ptr align 1 %34, i64 %42, i1 false)
  %43 = load ptr, ptr %6, align 8, !tbaa !47
  %44 = load ptr, ptr %8, align 8, !tbaa !14
  %45 = getelementptr inbounds nuw %struct.inflate_state, ptr %44, i32 0, i32 12
  %46 = load i32, ptr %45, align 8, !tbaa !41
  %47 = zext i32 %46 to i64
  %48 = getelementptr inbounds nuw i8, ptr %43, i64 %47
  %49 = load ptr, ptr %8, align 8, !tbaa !14
  %50 = getelementptr inbounds nuw %struct.inflate_state, ptr %49, i32 0, i32 13
  %51 = load i32, ptr %50, align 4, !tbaa !42
  %52 = zext i32 %51 to i64
  %53 = sub i64 0, %52
  %54 = getelementptr inbounds i8, ptr %48, i64 %53
  %55 = load ptr, ptr %8, align 8, !tbaa !14
  %56 = getelementptr inbounds nuw %struct.inflate_state, ptr %55, i32 0, i32 14
  %57 = load ptr, ptr %56, align 8, !tbaa !44
  %58 = load ptr, ptr %8, align 8, !tbaa !14
  %59 = getelementptr inbounds nuw %struct.inflate_state, ptr %58, i32 0, i32 13
  %60 = load i32, ptr %59, align 4, !tbaa !42
  %61 = zext i32 %60 to i64
  call void @llvm.memcpy.p0.p0.i64(ptr align 1 %54, ptr align 1 %57, i64 %61, i1 false)
  br label %62

62:                                               ; preds = %25, %22, %14
  %63 = load ptr, ptr %7, align 8, !tbaa !113
  %64 = icmp ne ptr %63, null
  br i1 %64, label %65, label %70

65:                                               ; preds = %62
  %66 = load ptr, ptr %8, align 8, !tbaa !14
  %67 = getelementptr inbounds nuw %struct.inflate_state, ptr %66, i32 0, i32 12
  %68 = load i32, ptr %67, align 8, !tbaa !41
  %69 = load ptr, ptr %7, align 8, !tbaa !113
  store i32 %68, ptr %69, align 4, !tbaa !43
  br label %70

70:                                               ; preds = %65, %62
  store i32 0, ptr %4, align 4
  store i32 1, ptr %9, align 4
  br label %71

71:                                               ; preds = %70, %13
  call void @llvm.lifetime.end.p0(i64 8, ptr %8) #4
  %72 = load i32, ptr %4, align 4
  ret i32 %72
}